target datalayout = "e-m:e-p270:32:32-p271:32:32-p272:64:64-i64:64-i128:128-f80:128-n8:16:32:64-S128"
target triple = "x86_64-pc-linux-gnu"

%struct.AVFilterContext = type { ptr, ptr, ptr, ptr, ptr, i32, ptr, ptr, i32, ptr, ptr, i32, i32, ptr, ptr, ptr, ptr, i32, ptr, i32, i32 }
%struct.AudioPsyClipContext = type { ptr, double, double, double, double, i32, i32, i32, ptr, ptr, i32, i32, i32, i32, i32, ptr, ptr, ptr, ptr, ptr, ptr, ptr, ptr, ptr, ptr, ptr, ptr, ptr, ptr, ptr, ptr, ptr, ptr }

; Function Attrs: cold nounwind optsize uwtable
define internal void @uninit(ptr noundef %0) #0 {
  %2 = alloca ptr, align 8
  %3 = alloca ptr, align 8
  %4 = alloca i32, align 4
  store ptr %0, ptr %2, align 8, !tbaa !4
  call void @llvm.lifetime.start.p0(i64 8, ptr %3) #9
  %5 = load ptr, ptr %2, align 8, !tbaa !4
  %6 = getelementptr inbounds nuw %struct.AVFilterContext, ptr %5, i32 0, i32 9
  %7 = load ptr, ptr %6, align 8, !tbaa !9
  store ptr %7, ptr %3, align 8, !tbaa !22
  %8 = load ptr, ptr %3, align 8, !tbaa !22
  %9 = getelementptr inbounds nuw %struct.AudioPsyClipContext, ptr %8, i32 0, i32 17
  call void @av_freep(ptr noundef %9)
  %10 = load ptr, ptr %3, align 8, !tbaa !22
  %11 = getelementptr inbounds nuw %struct.AudioPsyClipContext, ptr %10, i32 0, i32 18
  call void @av_freep(ptr noundef %11)
  %12 = load ptr, ptr %3, align 8, !tbaa !22
  %13 = getelementptr inbounds nuw %struct.AudioPsyClipContext, ptr %12, i32 0, i32 19
  call void @av_freep(ptr noundef %13)
  %14 = load ptr, ptr %3, align 8, !tbaa !22
  %15 = getelementptr inbounds nuw %struct.AudioPsyClipContext, ptr %14, i32 0, i32 16
  call void @av_freep(ptr noundef %15)
  %16 = load ptr, ptr %3, align 8, !tbaa !22
  %17 = getelementptr inbounds nuw %struct.AudioPsyClipContext, ptr %16, i32 0, i32 15
  call void @av_freep(ptr noundef %17)
  %18 = load ptr, ptr %3, align 8, !tbaa !22
  %19 = getelementptr inbounds nuw %struct.AudioPsyClipContext, ptr %18, i32 0, i32 20
  call void @av_freep(ptr noundef %19)
  %20 = load ptr, ptr %3, align 8, !tbaa !22
  %21 = getelementptr inbounds nuw %struct.AudioPsyClipContext, ptr %20, i32 0, i32 22
  call void @av_frame_free(ptr noundef %21)
  %22 = load ptr, ptr %3, align 8, !tbaa !22
  %23 = getelementptr inbounds nuw %struct.AudioPsyClipContext, ptr %22, i32 0, i32 23
  call void @av_frame_free(ptr noundef %23)
  %24 = load ptr, ptr %3, align 8, !tbaa !22
  %25 = getelementptr inbounds nuw %struct.AudioPsyClipContext, ptr %24, i32 0, i32 24
  call void @av_frame_free(ptr noundef %25)
  %26 = load ptr, ptr %3, align 8, !tbaa !22
  %27 = getelementptr inbounds nuw %struct.AudioPsyClipContext, ptr %26, i32 0, i32 25
  call void @av_frame_free(ptr noundef %27)
  %28 = load ptr, ptr %3, align 8, !tbaa !22
  %29 = getelementptr inbounds nuw %struct.AudioPsyClipContext, ptr %28, i32 0, i32 26
  call void @av_frame_free(ptr noundef %29)
  %30 = load ptr, ptr %3, align 8, !tbaa !22
  %31 = getelementptr inbounds nuw %struct.AudioPsyClipContext, ptr %30, i32 0, i32 27
  call void @av_frame_free(ptr noundef %31)
  %32 = load ptr, ptr %3, align 8, !tbaa !22
  %33 = getelementptr inbounds nuw %struct.AudioPsyClipContext, ptr %32, i32 0, i32 28
  call void @av_frame_free(ptr noundef %33)
  call void @llvm.lifetime.start.p0(i64 4, ptr %4) #9
  store i32 0, ptr %4, align 4, !tbaa !24
  br label %34

34:                                               ; preds = %66, %1
  %35 = load i32, ptr %4, align 4, !tbaa !24
  %36 = load ptr, ptr %3, align 8, !tbaa !22
  %37 = getelementptr inbounds nuw %struct.AudioPsyClipContext, ptr %36, i32 0, i32 13
  %38 = load i32, ptr %37, align 4, !tbaa !25
  %39 = icmp slt i32 %35, %38
  br i1 %39, label %41, label %40

40:                                               ; preds = %34
  call void @llvm.lifetime.end.p0(i64 4, ptr %4) #9
  br label %69

41:                                               ; preds = %34
  %42 = load ptr, ptr %3, align 8, !tbaa !22
  %43 = getelementptr inbounds nuw %struct.AudioPsyClipContext, ptr %42, i32 0, i32 29
  %44 = load ptr, ptr %43, align 8, !tbaa !32
  %45 = icmp ne ptr %44, null
  br i1 %45, label %46, label %53

46:                                               ; preds = %41
  %47 = load ptr, ptr %3, align 8, !tbaa !22
  %48 = getelementptr inbounds nuw %struct.AudioPsyClipContext, ptr %47, i32 0, i32 29
  %49 = load ptr, ptr %48, align 8, !tbaa !32
  %50 = load i32, ptr %4, align 4, !tbaa !24
  %51 = sext i32 %50 to i64
  %52 = getelementptr inbounds ptr, ptr %49, i64 %51
  call void @av_tx_uninit(ptr noundef %52)
  br label %53

53:                                               ; preds = %46, %41
  %54 = load ptr, ptr %3, align 8, !tbaa !22
  %55 = getelementptr inbounds nuw %struct.AudioPsyClipContext, ptr %54, i32 0, i32 31
  %56 = load ptr, ptr %55, align 8, !tbaa !33
  %57 = icmp ne ptr %56, null
  br i1 %57, label %58, label %65

58:                                               ; preds = %53
  %59 = load ptr, ptr %3, align 8, !tbaa !22
  %60 = getelementptr inbounds nuw %struct.AudioPsyClipContext, ptr %59, i32 0, i32 31
  %61 = load ptr, ptr %60, align 8, !tbaa !33
  %62 = load i32, ptr %4, align 4, !tbaa !24
  %63 = sext i32 %62 to i64
  %64 = getelementptr inbounds ptr, ptr %61, i64 %63
  call void @av_tx_uninit(ptr noundef %64)
  br label %65

65:                                               ; preds = %58, %53
  br label %66

66:                                               ; preds = %65
  %67 = load i32, ptr %4, align 4, !tbaa !24
  %68 = add nsw i32 %67, 1
  store i32 %68, ptr %4, align 4, !tbaa !24
  br label %34, !llvm.loop !34

69:                                               ; preds = %40
  %70 = load ptr, ptr %3, align 8, !tbaa !22
  %71 = getelementptr inbounds nuw %struct.AudioPsyClipContext, ptr %70, i32 0, i32 29
  call void @av_freep(ptr noundef %71)
  %72 = load ptr, ptr %3, align 8, !tbaa !22
  %73 = getelementptr inbounds nuw %struct.AudioPsyClipContext, ptr %72, i32 0, i32 31
  call void @av_freep(ptr noundef %73)
  call void @llvm.lifetime.end.p0(i64 8, ptr %3) #9
  ret void
}