; Function Attrs: cold nounwind optsize uwtable
define internal void @uninit(ptr noundef readonly captures(none) %0) #0 {
  %2 = getelementptr inbounds nuw i8, ptr %0, i64 72
  %3 = load ptr, ptr %2, align 8, !tbaa !4
  %4 = getelementptr inbounds nuw i8, ptr %3, i64 112
  tail call void @av_freep(ptr noundef nonnull %4) #10
  %5 = getelementptr inbounds nuw i8, ptr %3, i64 120
  tail call void @av_freep(ptr noundef nonnull %5) #10
  %6 = getelementptr inbounds nuw i8, ptr %3, i64 128
  tail call void @av_freep(ptr noundef nonnull %6) #10
  %7 = getelementptr inbounds nuw i8, ptr %3, i64 104
  tail call void @av_freep(ptr noundef nonnull %7) #10
  %8 = getelementptr inbounds nuw i8, ptr %3, i64 96
  tail call void @av_freep(ptr noundef nonnull %8) #10
  %9 = getelementptr inbounds nuw i8, ptr %3, i64 136
  tail call void @av_freep(ptr noundef nonnull %9) #10
  %10 = getelementptr inbounds nuw i8, ptr %3, i64 152
  tail call void @av_frame_free(ptr noundef nonnull %10) #10
  %11 = getelementptr inbounds nuw i8, ptr %3, i64 160
  tail call void @av_frame_free(ptr noundef nonnull %11) #10
  %12 = getelementptr inbounds nuw i8, ptr %3, i64 168
  tail call void @av_frame_free(ptr noundef nonnull %12) #10
  %13 = getelementptr inbounds nuw i8, ptr %3, i64 176
  tail call void @av_frame_free(ptr noundef nonnull %13) #10
  %14 = getelementptr inbounds nuw i8, ptr %3, i64 184
  tail call void @av_frame_free(ptr noundef nonnull %14) #10
  %15 = getelementptr inbounds nuw i8, ptr %3, i64 192
  tail call void @av_frame_free(ptr noundef nonnull %15) #10
  %16 = getelementptr inbounds nuw i8, ptr %3, i64 200
  tail call void @av_frame_free(ptr noundef nonnull %16) #10
  %17 = getelementptr inbounds nuw i8, ptr %3, i64 84
  %18 = load i32, ptr %17, align 4, !tbaa !20
  %19 = icmp sgt i32 %18, 0
  br i1 %19, label %.lr.ph, label %._crit_edge

.lr.ph:                                           ; preds = %1
  %20 = getelementptr inbounds nuw i8, ptr %3, i64 208
  %21 = getelementptr inbounds nuw i8, ptr %3, i64 224
  br label %24

._crit_edge:                                      ; preds = %32, %1
  %22 = getelementptr inbounds nuw i8, ptr %3, i64 208
  tail call void @av_freep(ptr noundef nonnull %22) #10
  %23 = getelementptr inbounds nuw i8, ptr %3, i64 224
  tail call void @av_freep(ptr noundef nonnull %23) #10
  ret void

24:                                               ; preds = %.lr.ph, %32
  %indvars.iv = phi i64 [ 0, %.lr.ph ], [ %indvars.iv.next, %32 ]
  %25 = load ptr, ptr %20, align 8, !tbaa !27
  %.not = icmp eq ptr %25, null
  br i1 %.not, label %28, label %26

26:                                               ; preds = %24
  %27 = getelementptr inbounds nuw ptr, ptr %25, i64 %indvars.iv
  tail call void @av_tx_uninit(ptr noundef nonnull %27) #10
  br label %28

28:                                               ; preds = %26, %24
  %29 = load ptr, ptr %21, align 8, !tbaa !28
  %.not26 = icmp eq ptr %29, null
  br i1 %.not26, label %32, label %30

30:                                               ; preds = %28
  %31 = getelementptr inbounds nuw ptr, ptr %29, i64 %indvars.iv
  tail call void @av_tx_uninit(ptr noundef nonnull %31) #10
  br label %32

32:                                               ; preds = %28, %30
  %indvars.iv.next = add nuw nsw i64 %indvars.iv, 1
  %33 = load i32, ptr %17, align 4, !tbaa !20
  %34 = sext i32 %33 to i64
  %35 = icmp slt i64 %indvars.iv.next, %34
  br i1 %35, label %24, label %._crit_edge, !llvm.loop !29
}